target datalayout = "e-m:e-p270:32:32-p271:32:32-p272:64:64-i64:64-i128:128-f80:128-n8:16:32:64-S128"
target triple = "x86_64-pc-linux-gnu"

%struct.Vec_Int_t_ = type { i32, i32, ptr }

; Function Attrs: inlinehint nounwind uwtable
define internal i32 @Abc_LitNot(i32 noundef %0) #1 {
  %2 = alloca i32, align 4
  store i32 %0, ptr %2, align 4, !tbaa !8
  %3 = load i32, ptr %2, align 4, !tbaa !8
  %4 = xor i32 %3, 1
  ret i32 %4
}

; Function Attrs: nounwind uwtable
define i32 @Gia_ManHashOr(ptr noundef %0, i32 noundef %1, i32 noundef %2) #0 {
  %4 = alloca ptr, align 8
  %5 = alloca i32, align 4
  %6 = alloca i32, align 4
  store ptr %0, ptr %4, align 8, !tbaa !3
  store i32 %1, ptr %5, align 4, !tbaa !8
  store i32 %2, ptr %6, align 4, !tbaa !8
  %7 = load ptr, ptr %4, align 8, !tbaa !3
  %8 = load i32, ptr %5, align 4, !tbaa !8
  %9 = call i32 @Abc_LitNot(i32 noundef %8)
  %10 = load i32, ptr %6, align 4, !tbaa !8
  %11 = call i32 @Abc_LitNot(i32 noundef %10)
  %12 = call i32 @Gia_ManHashAnd(ptr noundef %7, i32 noundef %9, i32 noundef %11)
  %13 = call i32 @Abc_LitNot(i32 noundef %12)
  ret i32 %13
}

; Function Attrs: inlinehint nounwind uwtable
define internal i32 @Vec_IntEntry(ptr noundef %0, i32 noundef %1) #1 {
  %3 = alloca ptr, align 8
  %4 = alloca i32, align 4
  store ptr %0, ptr %3, align 8, !tbaa !35
  store i32 %1, ptr %4, align 4, !tbaa !8
  %5 = load ptr, ptr %3, align 8, !tbaa !35
  %6 = getelementptr inbounds nuw %struct.Vec_Int_t_, ptr %5, i32 0, i32 2
  %7 = load ptr, ptr %6, align 8, !tbaa !36
  %8 = load i32, ptr %4, align 4, !tbaa !8
  %9 = sext i32 %8 to i64
  %10 = getelementptr inbounds i32, ptr %7, i64 %9
  %11 = load i32, ptr %10, align 4, !tbaa !8
  ret i32 %11
}

; Function Attrs: inlinehint nounwind uwtable
define internal i32 @Vec_IntSize(ptr noundef %0) #1 {
  %2 = alloca ptr, align 8
  store ptr %0, ptr %2, align 8, !tbaa !35
  %3 = load ptr, ptr %2, align 8, !tbaa !35
  %4 = getelementptr inbounds nuw %struct.Vec_Int_t_, ptr %3, i32 0, i32 1
  %5 = load i32, ptr %4, align 4, !tbaa !38
  ret i32 %5
}

; Function Attrs: nounwind uwtable
define i32 @Gia_ManHashDualMiter(ptr noundef %0, ptr noundef %1) #0 {
  %3 = alloca ptr, align 8
  %4 = alloca ptr, align 8
  %5 = alloca i32, align 4
  %6 = alloca i32, align 4
  %7 = alloca i32, align 4
  %8 = alloca i32, align 4
  store ptr %0, ptr %3, align 8, !tbaa !3
  store ptr %1, ptr %4, align 8, !tbaa !35
  call void @llvm.lifetime.start.p0(i64 4, ptr %5) #12
  call void @llvm.lifetime.start.p0(i64 4, ptr %6) #12
  call void @llvm.lifetime.start.p0(i64 4, ptr %7) #12
  call void @llvm.lifetime.start.p0(i64 4, ptr %8) #12
  store i32 0, ptr %8, align 4, !tbaa !8
  store i32 0, ptr %5, align 4, !tbaa !8
  br label %9

9:                                                ; preds = %34, %2
  %10 = load i32, ptr %5, align 4, !tbaa !8
  %11 = add nsw i32 %10, 1
  %12 = load ptr, ptr %4, align 8, !tbaa !35
  %13 = call i32 @Vec_IntSize(ptr noundef %12)
  %14 = icmp slt i32 %11, %13
  br i1 %14, label %15, label %24

15:                                               ; preds = %9
  %16 = load ptr, ptr %4, align 8, !tbaa !35
  %17 = load i32, ptr %5, align 4, !tbaa !8
  %18 = call i32 @Vec_IntEntry(ptr noundef %16, i32 noundef %17)
  store i32 %18, ptr %6, align 4, !tbaa !8
  br i1 true, label %19, label %24

19:                                               ; preds = %15
  %20 = load ptr, ptr %4, align 8, !tbaa !35
  %21 = load i32, ptr %5, align 4, !tbaa !8
  %22 = add nsw i32 %21, 1
  %23 = call i32 @Vec_IntEntry(ptr noundef %20, i32 noundef %22)
  store i32 %23, ptr %7, align 4, !tbaa !8
  br label %24

24:                                               ; preds = %19, %15, %9
  %25 = phi i1 [ false, %15 ], [ false, %9 ], [ true, %19 ]
  br i1 %25, label %26, label %37

26:                                               ; preds = %24
  %27 = load ptr, ptr %3, align 8, !tbaa !3
  %28 = load i32, ptr %8, align 4, !tbaa !8
  %29 = load ptr, ptr %3, align 8, !tbaa !3
  %30 = load i32, ptr %6, align 4, !tbaa !8
  %31 = load i32, ptr %7, align 4, !tbaa !8
  %32 = call i32 @Gia_ManHashXor(ptr noundef %29, i32 noundef %30, i32 noundef %31)
  %33 = call i32 @Gia_ManHashOr(ptr noundef %27, i32 noundef %28, i32 noundef %32)
  store i32 %33, ptr %8, align 4, !tbaa !8
  br label %34

34:                                               ; preds = %26
  %35 = load i32, ptr %5, align 4, !tbaa !8
  %36 = add nsw i32 %35, 2
  store i32 %36, ptr %5, align 4, !tbaa !8
  br label %9, !llvm.loop !73

37:                                               ; preds = %24
  %38 = load i32, ptr %8, align 4, !tbaa !8
  call void @llvm.lifetime.end.p0(i64 4, ptr %8) #12
  call void @llvm.lifetime.end.p0(i64 4, ptr %7) #12
  call void @llvm.lifetime.end.p0(i64 4, ptr %6) #12
  call void @llvm.lifetime.end.p0(i64 4, ptr %5) #12
  ret i32 %38
}