; Function Attrs: nounwind uwtable
define i32 @Gia_ManHashDualMiter(ptr noundef %0, ptr noundef readonly captures(none) %1) local_unnamed_addr #2 {
  %3 = getelementptr i8, ptr %1, i64 4
  %.val16 = load i32, ptr %3, align 4, !tbaa !3
  %4 = icmp sgt i32 %.val16, 1
  br i1 %4, label %.lr.ph, label %.critedge

.lr.ph:                                           ; preds = %2
  %5 = getelementptr i8, ptr %1, i64 8
  br label %6

6:                                                ; preds = %.lr.ph, %6
  %indvars.iv = phi i64 [ 0, %.lr.ph ], [ %indvars.iv.next, %6 ]
  %.018 = phi i32 [ 1, %.lr.ph ], [ %14, %6 ]
  %7 = or disjoint i64 %indvars.iv, 1
  %.val15 = load ptr, ptr %5, align 8, !tbaa !10
  %8 = getelementptr inbounds nuw i32, ptr %.val15, i64 %indvars.iv
  %9 = load i32, ptr %8, align 4, !tbaa !11
  %10 = getelementptr inbounds nuw i32, ptr %.val15, i64 %7
  %11 = load i32, ptr %10, align 4, !tbaa !11
  %12 = tail call i32 @Gia_ManHashXor(ptr noundef %0, i32 noundef %9, i32 noundef %11)
  %13 = xor i32 %12, 1
  %14 = tail call i32 @Gia_ManHashAnd(ptr noundef %0, i32 noundef %.018, i32 noundef %13)
  %indvars.iv.next = add nuw nsw i64 %indvars.iv, 2
  %.val = load i32, ptr %3, align 4, !tbaa !3
  %15 = trunc i64 %indvars.iv.next to i32
  %16 = or disjoint i32 %15, 1
  %17 = icmp slt i32 %16, %.val
  br i1 %17, label %6, label %.critedge.loopexit, !llvm.loop !66

.critedge.loopexit:                               ; preds = %6
  %18 = xor i32 %14, 1
  br label %.critedge

.critedge:                                        ; preds = %.critedge.loopexit, %2
  %.0.lcssa = phi i32 [ 0, %2 ], [ %18, %.critedge.loopexit ]
  ret i32 %.0.lcssa
}